target datalayout = "e-m:e-p270:32:32-p271:32:32-p272:64:64-i64:64-i128:128-f80:128-n8:16:32:64-S128"
target triple = "x86_64-pc-linux-gnu"

%struct.mbedtls_md_context_t = type { ptr, ptr, ptr }
%struct.mbedtls_md_info_t = type { i32, i8, i8 }

; Function Attrs: alwaysinline nounwind uwtable
define internal void @mbedtls_put_unaligned_uint64(ptr noundef %0, i64 noundef %1) #7 {
  %3 = alloca ptr, align 8
  %4 = alloca i64, align 8
  store ptr %0, ptr %3, align 8, !tbaa !24
  store i64 %1, ptr %4, align 8, !tbaa !21
  %5 = load ptr, ptr %3, align 8, !tbaa !24
  call void @llvm.memcpy.p0.p0.i64(ptr align 1 %5, ptr align 8 %4, i64 8, i1 false)
  ret void
}

; Function Attrs: alwaysinline nounwind uwtable
define internal i64 @mbedtls_get_unaligned_uint64(ptr noundef %0) #7 {
  %2 = alloca ptr, align 8
  %3 = alloca i64, align 8
  store ptr %0, ptr %2, align 8, !tbaa !24
  call void @llvm.lifetime.start.p0(i64 8, ptr %3) #9
  %4 = load ptr, ptr %2, align 8, !tbaa !24
  call void @llvm.memcpy.p0.p0.i64(ptr align 8 %3, ptr align 1 %4, i64 8, i1 false)
  %5 = load i64, ptr %3, align 8, !tbaa !21
  call void @llvm.lifetime.end.p0(i64 8, ptr %3) #9
  ret i64 %5
}

; Function Attrs: alwaysinline nounwind uwtable
define internal void @mbedtls_xor(ptr noundef %0, ptr noundef %1, ptr noundef %2, i64 noundef %3) #7 {
  %5 = alloca ptr, align 8
  %6 = alloca ptr, align 8
  %7 = alloca ptr, align 8
  %8 = alloca i64, align 8
  %9 = alloca i64, align 8
  %10 = alloca i64, align 8
  store ptr %0, ptr %5, align 8, !tbaa !19
  store ptr %1, ptr %6, align 8, !tbaa !19
  store ptr %2, ptr %7, align 8, !tbaa !19
  store i64 %3, ptr %8, align 8, !tbaa !21
  call void @llvm.lifetime.start.p0(i64 8, ptr %9) #9
  store i64 0, ptr %9, align 8, !tbaa !21
  br label %11

11:                                               ; preds = %30, %4
  %12 = load i64, ptr %9, align 8, !tbaa !21
  %13 = add i64 %12, 8
  %14 = load i64, ptr %8, align 8, !tbaa !21
  %15 = icmp ule i64 %13, %14
  br i1 %15, label %16, label %33

16:                                               ; preds = %11
  call void @llvm.lifetime.start.p0(i64 8, ptr %10) #9
  %17 = load ptr, ptr %6, align 8, !tbaa !19
  %18 = load i64, ptr %9, align 8, !tbaa !21
  %19 = getelementptr inbounds nuw i8, ptr %17, i64 %18
  %20 = call i64 @mbedtls_get_unaligned_uint64(ptr noundef %19)
  %21 = load ptr, ptr %7, align 8, !tbaa !19
  %22 = load i64, ptr %9, align 8, !tbaa !21
  %23 = getelementptr inbounds nuw i8, ptr %21, i64 %22
  %24 = call i64 @mbedtls_get_unaligned_uint64(ptr noundef %23)
  %25 = xor i64 %20, %24
  store i64 %25, ptr %10, align 8, !tbaa !21
  %26 = load ptr, ptr %5, align 8, !tbaa !19
  %27 = load i64, ptr %9, align 8, !tbaa !21
  %28 = getelementptr inbounds nuw i8, ptr %26, i64 %27
  %29 = load i64, ptr %10, align 8, !tbaa !21
  call void @mbedtls_put_unaligned_uint64(ptr noundef %28, i64 noundef %29)
  call void @llvm.lifetime.end.p0(i64 8, ptr %10) #9
  br label %30

30:                                               ; preds = %16
  %31 = load i64, ptr %9, align 8, !tbaa !21
  %32 = add i64 %31, 8
  store i64 %32, ptr %9, align 8, !tbaa !21
  br label %11, !llvm.loop !34

33:                                               ; preds = %11
  br label %34

34:                                               ; preds = %54, %33
  %35 = load i64, ptr %9, align 8, !tbaa !21
  %36 = load i64, ptr %8, align 8, !tbaa !21
  %37 = icmp ult i64 %35, %36
  br i1 %37, label %38, label %57

38:                                               ; preds = %34
  %39 = load ptr, ptr %6, align 8, !tbaa !19
  %40 = load i64, ptr %9, align 8, !tbaa !21
  %41 = getelementptr inbounds nuw i8, ptr %39, i64 %40
  %42 = load i8, ptr %41, align 1, !tbaa !35
  %43 = zext i8 %42 to i32
  %44 = load ptr, ptr %7, align 8, !tbaa !19
  %45 = load i64, ptr %9, align 8, !tbaa !21
  %46 = getelementptr inbounds nuw i8, ptr %44, i64 %45
  %47 = load i8, ptr %46, align 1, !tbaa !35
  %48 = zext i8 %47 to i32
  %49 = xor i32 %43, %48
  %50 = trunc i32 %49 to i8
  %51 = load ptr, ptr %5, align 8, !tbaa !19
  %52 = load i64, ptr %9, align 8, !tbaa !21
  %53 = getelementptr inbounds nuw i8, ptr %51, i64 %52
  store i8 %50, ptr %53, align 1, !tbaa !35
  br label %54

54:                                               ; preds = %38
  %55 = load i64, ptr %9, align 8, !tbaa !21
  %56 = add i64 %55, 1
  store i64 %56, ptr %9, align 8, !tbaa !21
  br label %34, !llvm.loop !36

57:                                               ; preds = %34
  call void @llvm.lifetime.end.p0(i64 8, ptr %9) #9
  ret void
}

; Function Attrs: nounwind uwtable
define hidden i32 @mbedtls_md_hmac_starts(ptr noundef %0, ptr noundef %1, i64 noundef %2) #0 {
  %4 = alloca i32, align 4
  %5 = alloca ptr, align 8
  %6 = alloca ptr, align 8
  %7 = alloca i64, align 8
  %8 = alloca i32, align 4
  %9 = alloca [64 x i8], align 16
  %10 = alloca ptr, align 8
  %11 = alloca ptr, align 8
  %12 = alloca i32, align 4
  store ptr %0, ptr %5, align 8, !tbaa !7
  store ptr %1, ptr %6, align 8, !tbaa !19
  store i64 %2, ptr %7, align 8, !tbaa !21
  call void @llvm.lifetime.start.p0(i64 4, ptr %8) #9
  store i32 -110, ptr %8, align 4, !tbaa !3
  call void @llvm.lifetime.start.p0(i64 64, ptr %9) #9
  call void @llvm.lifetime.start.p0(i64 8, ptr %10) #9
  call void @llvm.lifetime.start.p0(i64 8, ptr %11) #9
  %13 = load ptr, ptr %5, align 8, !tbaa !7
  %14 = icmp eq ptr %13, null
  br i1 %14, label %25, label %15

15:                                               ; preds = %3
  %16 = load ptr, ptr %5, align 8, !tbaa !7
  %17 = getelementptr inbounds nuw %struct.mbedtls_md_context_t, ptr %16, i32 0, i32 0
  %18 = load ptr, ptr %17, align 8, !tbaa !10
  %19 = icmp eq ptr %18, null
  br i1 %19, label %25, label %20

20:                                               ; preds = %15
  %21 = load ptr, ptr %5, align 8, !tbaa !7
  %22 = getelementptr inbounds nuw %struct.mbedtls_md_context_t, ptr %21, i32 0, i32 2
  %23 = load ptr, ptr %22, align 8, !tbaa !16
  %24 = icmp eq ptr %23, null
  br i1 %24, label %25, label %26

25:                                               ; preds = %20, %15, %3
  store i32 -20736, ptr %4, align 4
  store i32 1, ptr %12, align 4
  br label %118

26:                                               ; preds = %20
  %27 = load i64, ptr %7, align 8, !tbaa !21
  %28 = load ptr, ptr %5, align 8, !tbaa !7
  %29 = getelementptr inbounds nuw %struct.mbedtls_md_context_t, ptr %28, i32 0, i32 0
  %30 = load ptr, ptr %29, align 8, !tbaa !10
  %31 = getelementptr inbounds nuw %struct.mbedtls_md_info_t, ptr %30, i32 0, i32 2
  %32 = load i8, ptr %31, align 1, !tbaa !17
  %33 = zext i8 %32 to i64
  %34 = icmp ugt i64 %27, %33
  br i1 %34, label %35, label %61

35:                                               ; preds = %26
  %36 = load ptr, ptr %5, align 8, !tbaa !7
  %37 = call i32 @mbedtls_md_starts(ptr noundef %36)
  store i32 %37, ptr %8, align 4, !tbaa !3
  %38 = icmp ne i32 %37, 0
  br i1 %38, label %39, label %40

39:                                               ; preds = %35
  br label %115

40:                                               ; preds = %35
  %41 = load ptr, ptr %5, align 8, !tbaa !7
  %42 = load ptr, ptr %6, align 8, !tbaa !19
  %43 = load i64, ptr %7, align 8, !tbaa !21
  %44 = call i32 @mbedtls_md_update(ptr noundef %41, ptr noundef %42, i64 noundef %43)
  store i32 %44, ptr %8, align 4, !tbaa !3
  %45 = icmp ne i32 %44, 0
  br i1 %45, label %46, label %47

46:                                               ; preds = %40
  br label %115

47:                                               ; preds = %40
  %48 = load ptr, ptr %5, align 8, !tbaa !7
  %49 = getelementptr inbounds [64 x i8], ptr %9, i64 0, i64 0
  %50 = call i32 @mbedtls_md_finish(ptr noundef %48, ptr noundef %49)
  store i32 %50, ptr %8, align 4, !tbaa !3
  %51 = icmp ne i32 %50, 0
  br i1 %51, label %52, label %53

52:                                               ; preds = %47
  br label %115

53:                                               ; preds = %47
  %54 = load ptr, ptr %5, align 8, !tbaa !7
  %55 = getelementptr inbounds nuw %struct.mbedtls_md_context_t, ptr %54, i32 0, i32 0
  %56 = load ptr, ptr %55, align 8, !tbaa !10
  %57 = getelementptr inbounds nuw %struct.mbedtls_md_info_t, ptr %56, i32 0, i32 1
  %58 = load i8, ptr %57, align 4, !tbaa !23
  %59 = zext i8 %58 to i64
  store i64 %59, ptr %7, align 8, !tbaa !21
  %60 = getelementptr inbounds [64 x i8], ptr %9, i64 0, i64 0
  store ptr %60, ptr %6, align 8, !tbaa !19
  br label %61

61:                                               ; preds = %53, %26
  %62 = load ptr, ptr %5, align 8, !tbaa !7
  %63 = getelementptr inbounds nuw %struct.mbedtls_md_context_t, ptr %62, i32 0, i32 2
  %64 = load ptr, ptr %63, align 8, !tbaa !16
  store ptr %64, ptr %10, align 8, !tbaa !19
  %65 = load ptr, ptr %5, align 8, !tbaa !7
  %66 = getelementptr inbounds nuw %struct.mbedtls_md_context_t, ptr %65, i32 0, i32 2
  %67 = load ptr, ptr %66, align 8, !tbaa !16
  %68 = load ptr, ptr %5, align 8, !tbaa !7
  %69 = getelementptr inbounds nuw %struct.mbedtls_md_context_t, ptr %68, i32 0, i32 0
  %70 = load ptr, ptr %69, align 8, !tbaa !10
  %71 = getelementptr inbounds nuw %struct.mbedtls_md_info_t, ptr %70, i32 0, i32 2
  %72 = load i8, ptr %71, align 1, !tbaa !17
  %73 = zext i8 %72 to i32
  %74 = sext i32 %73 to i64
  %75 = getelementptr inbounds i8, ptr %67, i64 %74
  store ptr %75, ptr %11, align 8, !tbaa !19
  %76 = load ptr, ptr %10, align 8, !tbaa !19
  %77 = load ptr, ptr %5, align 8, !tbaa !7
  %78 = getelementptr inbounds nuw %struct.mbedtls_md_context_t, ptr %77, i32 0, i32 0
  %79 = load ptr, ptr %78, align 8, !tbaa !10
  %80 = getelementptr inbounds nuw %struct.mbedtls_md_info_t, ptr %79, i32 0, i32 2
  %81 = load i8, ptr %80, align 1, !tbaa !17
  %82 = zext i8 %81 to i64
  call void @llvm.memset.p0.i64(ptr align 1 %76, i8 54, i64 %82, i1 false)
  %83 = load ptr, ptr %11, align 8, !tbaa !19
  %84 = load ptr, ptr %5, align 8, !tbaa !7
  %85 = getelementptr inbounds nuw %struct.mbedtls_md_context_t, ptr %84, i32 0, i32 0
  %86 = load ptr, ptr %85, align 8, !tbaa !10
  %87 = getelementptr inbounds nuw %struct.mbedtls_md_info_t, ptr %86, i32 0, i32 2
  %88 = load i8, ptr %87, align 1, !tbaa !17
  %89 = zext i8 %88 to i64
  call void @llvm.memset.p0.i64(ptr align 1 %83, i8 92, i64 %89, i1 false)
  %90 = load ptr, ptr %10, align 8, !tbaa !19
  %91 = load ptr, ptr %10, align 8, !tbaa !19
  %92 = load ptr, ptr %6, align 8, !tbaa !19
  %93 = load i64, ptr %7, align 8, !tbaa !21
  call void @mbedtls_xor(ptr noundef %90, ptr noundef %91, ptr noundef %92, i64 noundef %93)
  %94 = load ptr, ptr %11, align 8, !tbaa !19
  %95 = load ptr, ptr %11, align 8, !tbaa !19
  %96 = load ptr, ptr %6, align 8, !tbaa !19
  %97 = load i64, ptr %7, align 8, !tbaa !21
  call void @mbedtls_xor(ptr noundef %94, ptr noundef %95, ptr noundef %96, i64 noundef %97)
  %98 = load ptr, ptr %5, align 8, !tbaa !7
  %99 = call i32 @mbedtls_md_starts(ptr noundef %98)
  store i32 %99, ptr %8, align 4, !tbaa !3
  %100 = icmp ne i32 %99, 0
  br i1 %100, label %101, label %102

101:                                              ; preds = %61
  br label %115

102:                                              ; preds = %61
  %103 = load ptr, ptr %5, align 8, !tbaa !7
  %104 = load ptr, ptr %10, align 8, !tbaa !19
  %105 = load ptr, ptr %5, align 8, !tbaa !7
  %106 = getelementptr inbounds nuw %struct.mbedtls_md_context_t, ptr %105, i32 0, i32 0
  %107 = load ptr, ptr %106, align 8, !tbaa !10
  %108 = getelementptr inbounds nuw %struct.mbedtls_md_info_t, ptr %107, i32 0, i32 2
  %109 = load i8, ptr %108, align 1, !tbaa !17
  %110 = zext i8 %109 to i64
  %111 = call i32 @mbedtls_md_update(ptr noundef %103, ptr noundef %104, i64 noundef %110)
  store i32 %111, ptr %8, align 4, !tbaa !3
  %112 = icmp ne i32 %111, 0
  br i1 %112, label %113, label %114

113:                                              ; preds = %102
  br label %115

114:                                              ; preds = %102
  br label %115

115:                                              ; preds = %114, %113, %101, %52, %46, %39
  %116 = getelementptr inbounds [64 x i8], ptr %9, i64 0, i64 0
  call void @mbedtls_platform_zeroize(ptr noundef %116, i64 noundef 64)
  %117 = load i32, ptr %8, align 4, !tbaa !3
  store i32 %117, ptr %4, align 4
  store i32 1, ptr %12, align 4
  br label %118

118:                                              ; preds = %115, %25
  call void @llvm.lifetime.end.p0(i64 8, ptr %11) #9
  call void @llvm.lifetime.end.p0(i64 8, ptr %10) #9
  call void @llvm.lifetime.end.p0(i64 64, ptr %9) #9
  call void @llvm.lifetime.end.p0(i64 4, ptr %8) #9
  %119 = load i32, ptr %4, align 4
  ret i32 %119
}