; Function Attrs: nounwind uwtable
define hidden i32 @mbedtls_md_hmac_starts(ptr noundef %0, ptr noundef %1, i64 noundef %2) local_unnamed_addr #3 {
  %4 = alloca [64 x i8], align 16
  call void @llvm.lifetime.start.p0(i64 64, ptr nonnull %4) #14
  %5 = icmp eq ptr %0, null
  br i1 %5, label %68, label %6

6:                                                ; preds = %3
  %7 = load ptr, ptr %0, align 8, !tbaa !3
  %8 = icmp eq ptr %7, null
  br i1 %8, label %68, label %9

9:                                                ; preds = %6
  %10 = getelementptr inbounds nuw i8, ptr %0, i64 16
  %11 = load ptr, ptr %10, align 8, !tbaa !13
  %12 = icmp eq ptr %11, null
  br i1 %12, label %68, label %13

13:                                               ; preds = %9
  %14 = getelementptr inbounds nuw i8, ptr %7, i64 5
  %15 = load i8, ptr %14, align 1, !tbaa !14
  %16 = zext i8 %15 to i64
  %17 = icmp ugt i64 %2, %16
  br i1 %17, label %18, label %29

18:                                               ; preds = %13
  %19 = tail call i32 @mbedtls_md_starts(ptr noundef nonnull %0)
  %.not = icmp eq i32 %19, 0
  br i1 %.not, label %20, label %67

20:                                               ; preds = %18
  %21 = tail call i32 @mbedtls_md_update(ptr noundef nonnull %0, ptr noundef %1, i64 noundef %2)
  %.not41 = icmp eq i32 %21, 0
  br i1 %.not41, label %22, label %67

22:                                               ; preds = %20
  %23 = call i32 @mbedtls_md_finish(ptr noundef nonnull %0, ptr noundef nonnull %4)
  %.not42 = icmp eq i32 %23, 0
  br i1 %.not42, label %24, label %67

24:                                               ; preds = %22
  %25 = load ptr, ptr %0, align 8, !tbaa !3
  %26 = getelementptr inbounds nuw i8, ptr %25, i64 4
  %27 = load i8, ptr %26, align 4, !tbaa !15
  %28 = zext i8 %27 to i64
  %.pre = load ptr, ptr %10, align 8, !tbaa !13
  %.phi.trans.insert = getelementptr inbounds nuw i8, ptr %25, i64 5
  %.pre65 = load i8, ptr %.phi.trans.insert, align 1, !tbaa !14
  %.pre66 = zext i8 %.pre65 to i64
  br label %29

29:                                               ; preds = %24, %13
  %.pre-phi = phi i64 [ %.pre66, %24 ], [ %16, %13 ]
  %30 = phi ptr [ %.pre, %24 ], [ %11, %13 ]
  %.033 = phi i64 [ %28, %24 ], [ %2, %13 ]
  %.031 = phi ptr [ %4, %24 ], [ %1, %13 ]
  %31 = getelementptr inbounds nuw i8, ptr %30, i64 %.pre-phi
  call void @llvm.memset.p0.i64(ptr align 1 %30, i8 54, i64 %.pre-phi, i1 false)
  %32 = load ptr, ptr %0, align 8, !tbaa !3
  %33 = getelementptr inbounds nuw i8, ptr %32, i64 5
  %34 = load i8, ptr %33, align 1, !tbaa !14
  %35 = zext i8 %34 to i64
  call void @llvm.memset.p0.i64(ptr align 1 %31, i8 92, i64 %35, i1 false)
  %.not.i52 = icmp samesign ult i64 %.033, 8
  br i1 %.not.i52, label %.preheader51, label %.lr.ph

.preheader51:                                     ; preds = %.lr.ph, %29
  %.0.i.lcssa = phi i64 [ 0, %29 ], [ %37, %.lr.ph ]
  %36 = icmp samesign ult i64 %.0.i.lcssa, %.033
  br i1 %36, label %.lr.ph55, label %mbedtls_xor.exit.preheader

.lr.ph:                                           ; preds = %29, %.lr.ph
  %37 = phi i64 [ %41, %.lr.ph ], [ 8, %29 ]
  %.0.i53 = phi i64 [ %37, %.lr.ph ], [ 0, %29 ]
  %38 = getelementptr inbounds nuw i8, ptr %30, i64 %.0.i53
  %.0.copyload.i50 = load i64, ptr %38, align 1
  %39 = getelementptr inbounds nuw i8, ptr %.031, i64 %.0.i53
  %.0.copyload.i49 = load i64, ptr %39, align 1
  %40 = xor i64 %.0.copyload.i49, %.0.copyload.i50
  store i64 %40, ptr %38, align 1
  %41 = add nuw nsw i64 %37, 8
  %.not.i = icmp ugt i64 %41, %.033
  br i1 %.not.i, label %.preheader51, label %.lr.ph, !llvm.loop !24

mbedtls_xor.exit.preheader:                       ; preds = %.lr.ph55, %.preheader51
  br i1 %.not.i52, label %.preheader, label %mbedtls_xor.exit

.lr.ph55:                                         ; preds = %.preheader51, %.lr.ph55
  %.1.i54 = phi i64 [ %47, %.lr.ph55 ], [ %.0.i.lcssa, %.preheader51 ]
  %42 = getelementptr inbounds nuw i8, ptr %30, i64 %.1.i54
  %43 = load i8, ptr %42, align 1, !tbaa !25
  %44 = getelementptr inbounds nuw i8, ptr %.031, i64 %.1.i54
  %45 = load i8, ptr %44, align 1, !tbaa !25
  %46 = xor i8 %45, %43
  store i8 %46, ptr %42, align 1, !tbaa !25
  %47 = add nuw nsw i64 %.1.i54, 1
  %exitcond.not = icmp eq i64 %47, %.033
  br i1 %exitcond.not, label %mbedtls_xor.exit.preheader, label %.lr.ph55, !llvm.loop !26

.preheader:                                       ; preds = %mbedtls_xor.exit, %mbedtls_xor.exit.preheader
  %.0.i44.lcssa = phi i64 [ 0, %mbedtls_xor.exit.preheader ], [ %49, %mbedtls_xor.exit ]
  %48 = icmp samesign ult i64 %.0.i44.lcssa, %.033
  br i1 %48, label %.lr.ph61, label %mbedtls_xor.exit47

mbedtls_xor.exit:                                 ; preds = %mbedtls_xor.exit.preheader, %mbedtls_xor.exit
  %49 = phi i64 [ %53, %mbedtls_xor.exit ], [ 8, %mbedtls_xor.exit.preheader ]
  %.0.i4457 = phi i64 [ %49, %mbedtls_xor.exit ], [ 0, %mbedtls_xor.exit.preheader ]
  %50 = getelementptr inbounds nuw i8, ptr %31, i64 %.0.i4457
  %.0.copyload.i48 = load i64, ptr %50, align 1
  %51 = getelementptr inbounds nuw i8, ptr %.031, i64 %.0.i4457
  %.0.copyload.i = load i64, ptr %51, align 1
  %52 = xor i64 %.0.copyload.i, %.0.copyload.i48
  store i64 %52, ptr %50, align 1
  %53 = add nuw nsw i64 %49, 8
  %.not.i45 = icmp ugt i64 %53, %.033
  br i1 %.not.i45, label %.preheader, label %mbedtls_xor.exit, !llvm.loop !24

.lr.ph61:                                         ; preds = %.preheader, %.lr.ph61
  %.1.i4660 = phi i64 [ %59, %.lr.ph61 ], [ %.0.i44.lcssa, %.preheader ]
  %54 = getelementptr inbounds nuw i8, ptr %31, i64 %.1.i4660
  %55 = load i8, ptr %54, align 1, !tbaa !25
  %56 = getelementptr inbounds nuw i8, ptr %.031, i64 %.1.i4660
  %57 = load i8, ptr %56, align 1, !tbaa !25
  %58 = xor i8 %57, %55
  store i8 %58, ptr %54, align 1, !tbaa !25
  %59 = add nuw nsw i64 %.1.i4660, 1
  %exitcond64.not = icmp eq i64 %59, %.033
  br i1 %exitcond64.not, label %mbedtls_xor.exit47, label %.lr.ph61, !llvm.loop !26

mbedtls_xor.exit47:                               ; preds = %.lr.ph61, %.preheader
  %60 = call i32 @mbedtls_md_starts(ptr noundef nonnull %0)
  %.not43 = icmp eq i32 %60, 0
  br i1 %.not43, label %61, label %67

61:                                               ; preds = %mbedtls_xor.exit47
  %62 = load ptr, ptr %0, align 8, !tbaa !3
  %63 = getelementptr inbounds nuw i8, ptr %62, i64 5
  %64 = load i8, ptr %63, align 1, !tbaa !14
  %65 = zext i8 %64 to i64
  %66 = call i32 @mbedtls_md_update(ptr noundef nonnull %0, ptr noundef %30, i64 noundef %65)
  br label %67

67:                                               ; preds = %61, %mbedtls_xor.exit47, %22, %20, %18
  %.032 = phi i32 [ %19, %18 ], [ %21, %20 ], [ %23, %22 ], [ %60, %mbedtls_xor.exit47 ], [ %66, %61 ]
  call void @mbedtls_platform_zeroize(ptr noundef nonnull %4, i64 noundef 64) #14
  br label %68

68:                                               ; preds = %3, %6, %9, %67
  %.0 = phi i32 [ %.032, %67 ], [ -20736, %9 ], [ -20736, %6 ], [ -20736, %3 ]
  call void @llvm.lifetime.end.p0(i64 64, ptr nonnull %4) #14
  ret i32 %.0
}